target datalayout = "e-m:e-p270:32:32-p271:32:32-p272:64:64-i64:64-i128:128-f80:128-n8:16:32:64-S128"
target triple = "x86_64-pc-linux-gnu"

%struct._protocol = type { ptr, ptr, ptr, ptr, i32, i8, i8, i8, i32, ptr }

; Function Attrs: nounwind null_pointer_is_valid sspstrong uwtable
define zeroext i1 @proto_is_pino(ptr noundef %0) #3 {
  %2 = alloca ptr, align 8
  store ptr %0, ptr %2, align 8
  %3 = load ptr, ptr %2, align 8
  %4 = getelementptr inbounds nuw %struct._protocol, ptr %3, i32 0, i32 8
  %5 = load i32, ptr %4, align 8
  %6 = icmp ne i32 %5, -1
  ret i1 %6
}

; Function Attrs: null_pointer_is_valid sspstrong uwtable
define zeroext i1 @proto_is_protocol_enabled(ptr noundef %0) #0 {
  %2 = alloca i1, align 1
  %3 = alloca ptr, align 8
  store ptr %0, ptr %3, align 8
  %4 = load ptr, ptr %3, align 8
  %5 = icmp eq ptr %4, null
  br i1 %5, label %6, label %7

6:                                                ; preds = %1
  store i1 false, ptr %2, align 1
  br label %21

7:                                                ; preds = %1
  %8 = load ptr, ptr %3, align 8
  %9 = call zeroext i1 @proto_is_pino(ptr noundef %8)
  br i1 %9, label %10, label %16

10:                                               ; preds = %7
  %11 = load ptr, ptr %3, align 8
  %12 = getelementptr inbounds nuw %struct._protocol, ptr %11, i32 0, i32 8
  %13 = load i32, ptr %12, align 8
  %14 = call ptr @find_protocol_by_id(i32 noundef %13)
  %15 = call zeroext i1 @proto_is_protocol_enabled(ptr noundef %14)
  store i1 %15, ptr %2, align 1
  br label %21

16:                                               ; preds = %7
  %17 = load ptr, ptr %3, align 8
  %18 = getelementptr inbounds nuw %struct._protocol, ptr %17, i32 0, i32 5
  %19 = load i8, ptr %18, align 4, !range !10, !noundef !11
  %20 = trunc i8 %19 to i1
  store i1 %20, ptr %2, align 1
  br label %21

21:                                               ; preds = %16, %10, %6
  %22 = load i1, ptr %2, align 1
  ret i1 %22
}