; Function Attrs: null_pointer_is_valid sspstrong uwtable
define zeroext i1 @proto_is_protocol_enabled(ptr noundef readonly captures(address_is_null) %0) local_unnamed_addr #0 {
  %2 = icmp eq ptr %0, null
  br i1 %2, label %.loopexit, label %.lr.ph

.lr.ph:                                           ; preds = %1, %tailrecurse
  %.tr7 = phi ptr [ %5, %tailrecurse ], [ %0, %1 ]
  %3 = getelementptr inbounds nuw i8, ptr %.tr7, i64 40
  %4 = load i32, ptr %3, align 8
  %.not = icmp eq i32 %4, -1
  br i1 %.not, label %7, label %tailrecurse

tailrecurse:                                      ; preds = %.lr.ph
  %5 = tail call ptr @find_protocol_by_id(i32 noundef %4)
  %6 = icmp eq ptr %5, null
  br i1 %6, label %.loopexit, label %.lr.ph

7:                                                ; preds = %.lr.ph
  %8 = getelementptr inbounds nuw i8, ptr %.tr7, i64 36
  %9 = load i8, ptr %8, align 4, !range !10, !noundef !11
  %10 = trunc nuw i8 %9 to i1
  br label %.loopexit

.loopexit:                                        ; preds = %tailrecurse, %1, %7
  %.0 = phi i1 [ %10, %7 ], [ false, %1 ], [ false, %tailrecurse ]
  ret i1 %.0
}